target datalayout = "e-m:e-p270:32:32-p271:32:32-p272:64:64-i64:64-i128:128-f80:128-n8:16:32:64-S128"
target triple = "x86_64-pc-linux-gnu"

%"struct.cv::rgb" = type { i8, i8, i8 }
%"class.std::__cxx11::basic_string" = type { %"struct.std::__cxx11::basic_string<char>::_Alloc_hider", i64, %union.anon }
%"struct.std::__cxx11::basic_string<char>::_Alloc_hider" = type { ptr }
%union.anon = type { i64, [8 x i8] }
%"class.cv::PngEncoder" = type <{ %"class.cv::BaseImageEncoder", %"class.cv::AutoBuffer.31", %"class.cv::AutoBuffer.31", %"class.cv::AutoBuffer.31", %"class.cv::AutoBuffer.31", %"class.cv::AutoBuffer.31", %"class.cv::AutoBuffer.31", %"class.cv::AutoBuffer.31", %struct.z_stream_s, %struct.z_stream_s, [6 x %"struct.cv::OP"], [256 x %"struct.cv::rgb"], [256 x i8], i32, i32, i32, [4 x i8] }>
%"class.cv::BaseImageEncoder" = type { ptr, %"class.std::__cxx11::basic_string", %"class.std::__cxx11::basic_string", ptr, i8, %"class.std::__cxx11::basic_string" }
%"class.cv::AutoBuffer.31" = type { ptr, i64, [1032 x i8] }
%struct.z_stream_s = type { ptr, i32, i64, ptr, i32, i64, ptr, ptr, ptr, ptr, ptr, i32, i64, i64 }
%"struct.cv::OP" = type { ptr, i32, i32, i32, i32, i32, i32, i32 }

; Function Attrs: inlinehint mustprogress nounwind uwtable
define linkonce_odr hidden noundef ptr @_ZN2cv10AutoBufferIhLm1032EE4dataEv(ptr noundef nonnull align 8 dereferenceable(1048) %0) #7 comdat align 2 {
  %2 = alloca ptr, align 8
  store ptr %0, ptr %2, align 8, !tbaa !222
  %3 = load ptr, ptr %2, align 8
  %4 = getelementptr inbounds nuw %"class.cv::AutoBuffer.31", ptr %3, i32 0, i32 0
  %5 = load ptr, ptr %4, align 8, !tbaa !224
  ret ptr %5
}

; Function Attrs: mustprogress uwtable
define hidden void @_ZN2cv10PngEncoder13deflateRectOpEPhiiiiiiii(ptr noundef nonnull align 8 dereferenceable(8960) %0, ptr noundef %1, i32 noundef %2, i32 noundef %3, i32 noundef %4, i32 noundef %5, i32 noundef %6, i32 noundef %7, i32 noundef %8, i32 noundef %9) #5 align 2 {
  %11 = alloca ptr, align 8
  %12 = alloca ptr, align 8
  %13 = alloca i32, align 4
  %14 = alloca i32, align 4
  %15 = alloca i32, align 4
  %16 = alloca i32, align 4
  %17 = alloca i32, align 4
  %18 = alloca i32, align 4
  %19 = alloca i32, align 4
  %20 = alloca i32, align 4
  %21 = alloca ptr, align 8
  %22 = alloca i32, align 4
  store ptr %0, ptr %11, align 8, !tbaa !209
  store ptr %1, ptr %12, align 8, !tbaa !42
  store i32 %2, ptr %13, align 4, !tbaa !31
  store i32 %3, ptr %14, align 4, !tbaa !31
  store i32 %4, ptr %15, align 4, !tbaa !31
  store i32 %5, ptr %16, align 4, !tbaa !31
  store i32 %6, ptr %17, align 4, !tbaa !31
  store i32 %7, ptr %18, align 4, !tbaa !31
  store i32 %8, ptr %19, align 4, !tbaa !31
  store i32 %9, ptr %20, align 4, !tbaa !31
  %23 = load ptr, ptr %11, align 8
  call void @llvm.lifetime.start.p0(i64 8, ptr %21) #3
  %24 = load ptr, ptr %12, align 8, !tbaa !42
  %25 = load i32, ptr %14, align 4, !tbaa !31
  %26 = load i32, ptr %18, align 4, !tbaa !31
  %27 = mul nsw i32 %25, %26
  %28 = sext i32 %27 to i64
  %29 = getelementptr inbounds i8, ptr %24, i64 %28
  %30 = load i32, ptr %13, align 4, !tbaa !31
  %31 = load i32, ptr %17, align 4, !tbaa !31
  %32 = mul nsw i32 %30, %31
  %33 = sext i32 %32 to i64
  %34 = getelementptr inbounds i8, ptr %29, i64 %33
  store ptr %34, ptr %21, align 8, !tbaa !42
  call void @llvm.lifetime.start.p0(i64 4, ptr %22) #3
  %35 = load i32, ptr %15, align 4, !tbaa !31
  %36 = load i32, ptr %17, align 4, !tbaa !31
  %37 = mul nsw i32 %35, %36
  store i32 %37, ptr %22, align 4, !tbaa !31
  %38 = getelementptr inbounds nuw %"class.cv::PngEncoder", ptr %23, i32 0, i32 8
  %39 = getelementptr inbounds nuw %struct.z_stream_s, ptr %38, i32 0, i32 11
  store i32 0, ptr %39, align 8, !tbaa !253
  %40 = getelementptr inbounds nuw %"class.cv::PngEncoder", ptr %23, i32 0, i32 1
  %41 = call noundef ptr @_ZN2cv10AutoBufferIhLm1032EE4dataEv(ptr noundef nonnull align 8 dereferenceable(1048) %40)
  %42 = getelementptr inbounds nuw %"class.cv::PngEncoder", ptr %23, i32 0, i32 8
  %43 = getelementptr inbounds nuw %struct.z_stream_s, ptr %42, i32 0, i32 3
  store ptr %41, ptr %43, align 8, !tbaa !254
  %44 = load i32, ptr %19, align 4, !tbaa !31
  %45 = getelementptr inbounds nuw %"class.cv::PngEncoder", ptr %23, i32 0, i32 8
  %46 = getelementptr inbounds nuw %struct.z_stream_s, ptr %45, i32 0, i32 4
  store i32 %44, ptr %46, align 8, !tbaa !255
  %47 = getelementptr inbounds nuw %"class.cv::PngEncoder", ptr %23, i32 0, i32 9
  %48 = getelementptr inbounds nuw %struct.z_stream_s, ptr %47, i32 0, i32 11
  store i32 0, ptr %48, align 8, !tbaa !256
  %49 = getelementptr inbounds nuw %"class.cv::PngEncoder", ptr %23, i32 0, i32 2
  %50 = call noundef ptr @_ZN2cv10AutoBufferIhLm1032EE4dataEv(ptr noundef nonnull align 8 dereferenceable(1048) %49)
  %51 = getelementptr inbounds nuw %"class.cv::PngEncoder", ptr %23, i32 0, i32 9
  %52 = getelementptr inbounds nuw %struct.z_stream_s, ptr %51, i32 0, i32 3
  store ptr %50, ptr %52, align 8, !tbaa !257
  %53 = load i32, ptr %19, align 4, !tbaa !31
  %54 = getelementptr inbounds nuw %"class.cv::PngEncoder", ptr %23, i32 0, i32 9
  %55 = getelementptr inbounds nuw %struct.z_stream_s, ptr %54, i32 0, i32 4
  store i32 %53, ptr %55, align 8, !tbaa !258
  %56 = load ptr, ptr %21, align 8, !tbaa !42
  %57 = load i32, ptr %22, align 4, !tbaa !31
  %58 = load i32, ptr %17, align 4, !tbaa !31
  %59 = load i32, ptr %18, align 4, !tbaa !31
  %60 = load i32, ptr %16, align 4, !tbaa !31
  call void @_ZN2cv10PngEncoder11processRectEPhiiiiS1_(ptr noundef nonnull align 8 dereferenceable(8960) %23, ptr noundef %56, i32 noundef %57, i32 noundef %58, i32 noundef %59, i32 noundef %60, ptr noundef null)
  %61 = getelementptr inbounds nuw %"class.cv::PngEncoder", ptr %23, i32 0, i32 8
  %62 = call i32 @deflate(ptr noundef %61, i32 noundef 4)
  %63 = getelementptr inbounds nuw %"class.cv::PngEncoder", ptr %23, i32 0, i32 9
  %64 = call i32 @deflate(ptr noundef %63, i32 noundef 4)
  %65 = load ptr, ptr %12, align 8, !tbaa !42
  %66 = getelementptr inbounds nuw %"class.cv::PngEncoder", ptr %23, i32 0, i32 10
  %67 = load i32, ptr %20, align 4, !tbaa !31
  %68 = sext i32 %67 to i64
  %69 = getelementptr inbounds [6 x %"struct.cv::OP"], ptr %66, i64 0, i64 %68
  %70 = getelementptr inbounds nuw %"struct.cv::OP", ptr %69, i32 0, i32 0
  store ptr %65, ptr %70, align 8, !tbaa !259
  %71 = getelementptr inbounds nuw %"class.cv::PngEncoder", ptr %23, i32 0, i32 8
  %72 = getelementptr inbounds nuw %struct.z_stream_s, ptr %71, i32 0, i32 5
  %73 = load i64, ptr %72, align 8, !tbaa !261
  %74 = getelementptr inbounds nuw %"class.cv::PngEncoder", ptr %23, i32 0, i32 9
  %75 = getelementptr inbounds nuw %struct.z_stream_s, ptr %74, i32 0, i32 5
  %76 = load i64, ptr %75, align 8, !tbaa !262
  %77 = icmp ult i64 %73, %76
  br i1 %77, label %78, label %93

78:                                               ; preds = %10
  %79 = getelementptr inbounds nuw %"class.cv::PngEncoder", ptr %23, i32 0, i32 8
  %80 = getelementptr inbounds nuw %struct.z_stream_s, ptr %79, i32 0, i32 5
  %81 = load i64, ptr %80, align 8, !tbaa !261
  %82 = trunc i64 %81 to i32
  %83 = getelementptr inbounds nuw %"class.cv::PngEncoder", ptr %23, i32 0, i32 10
  %84 = load i32, ptr %20, align 4, !tbaa !31
  %85 = sext i32 %84 to i64
  %86 = getelementptr inbounds [6 x %"struct.cv::OP"], ptr %83, i64 0, i64 %85
  %87 = getelementptr inbounds nuw %"struct.cv::OP", ptr %86, i32 0, i32 1
  store i32 %82, ptr %87, align 8, !tbaa !263
  %88 = getelementptr inbounds nuw %"class.cv::PngEncoder", ptr %23, i32 0, i32 10
  %89 = load i32, ptr %20, align 4, !tbaa !31
  %90 = sext i32 %89 to i64
  %91 = getelementptr inbounds [6 x %"struct.cv::OP"], ptr %88, i64 0, i64 %90
  %92 = getelementptr inbounds nuw %"struct.cv::OP", ptr %91, i32 0, i32 7
  store i32 0, ptr %92, align 8, !tbaa !264
  br label %108

93:                                               ; preds = %10
  %94 = getelementptr inbounds nuw %"class.cv::PngEncoder", ptr %23, i32 0, i32 9
  %95 = getelementptr inbounds nuw %struct.z_stream_s, ptr %94, i32 0, i32 5
  %96 = load i64, ptr %95, align 8, !tbaa !262
  %97 = trunc i64 %96 to i32
  %98 = getelementptr inbounds nuw %"class.cv::PngEncoder", ptr %23, i32 0, i32 10
  %99 = load i32, ptr %20, align 4, !tbaa !31
  %100 = sext i32 %99 to i64
  %101 = getelementptr inbounds [6 x %"struct.cv::OP"], ptr %98, i64 0, i64 %100
  %102 = getelementptr inbounds nuw %"struct.cv::OP", ptr %101, i32 0, i32 1
  store i32 %97, ptr %102, align 8, !tbaa !263
  %103 = getelementptr inbounds nuw %"class.cv::PngEncoder", ptr %23, i32 0, i32 10
  %104 = load i32, ptr %20, align 4, !tbaa !31
  %105 = sext i32 %104 to i64
  %106 = getelementptr inbounds [6 x %"struct.cv::OP"], ptr %103, i64 0, i64 %105
  %107 = getelementptr inbounds nuw %"struct.cv::OP", ptr %106, i32 0, i32 7
  store i32 1, ptr %107, align 8, !tbaa !264
  br label %108

108:                                              ; preds = %93, %78
  %109 = load i32, ptr %13, align 4, !tbaa !31
  %110 = getelementptr inbounds nuw %"class.cv::PngEncoder", ptr %23, i32 0, i32 10
  %111 = load i32, ptr %20, align 4, !tbaa !31
  %112 = sext i32 %111 to i64
  %113 = getelementptr inbounds [6 x %"struct.cv::OP"], ptr %110, i64 0, i64 %112
  %114 = getelementptr inbounds nuw %"struct.cv::OP", ptr %113, i32 0, i32 2
  store i32 %109, ptr %114, align 4, !tbaa !265
  %115 = load i32, ptr %14, align 4, !tbaa !31
  %116 = getelementptr inbounds nuw %"class.cv::PngEncoder", ptr %23, i32 0, i32 10
  %117 = load i32, ptr %20, align 4, !tbaa !31
  %118 = sext i32 %117 to i64
  %119 = getelementptr inbounds [6 x %"struct.cv::OP"], ptr %116, i64 0, i64 %118
  %120 = getelementptr inbounds nuw %"struct.cv::OP", ptr %119, i32 0, i32 3
  store i32 %115, ptr %120, align 8, !tbaa !266
  %121 = load i32, ptr %15, align 4, !tbaa !31
  %122 = getelementptr inbounds nuw %"class.cv::PngEncoder", ptr %23, i32 0, i32 10
  %123 = load i32, ptr %20, align 4, !tbaa !31
  %124 = sext i32 %123 to i64
  %125 = getelementptr inbounds [6 x %"struct.cv::OP"], ptr %122, i64 0, i64 %124
  %126 = getelementptr inbounds nuw %"struct.cv::OP", ptr %125, i32 0, i32 4
  store i32 %121, ptr %126, align 4, !tbaa !267
  %127 = load i32, ptr %16, align 4, !tbaa !31
  %128 = getelementptr inbounds nuw %"class.cv::PngEncoder", ptr %23, i32 0, i32 10
  %129 = load i32, ptr %20, align 4, !tbaa !31
  %130 = sext i32 %129 to i64
  %131 = getelementptr inbounds [6 x %"struct.cv::OP"], ptr %128, i64 0, i64 %130
  %132 = getelementptr inbounds nuw %"struct.cv::OP", ptr %131, i32 0, i32 5
  store i32 %127, ptr %132, align 8, !tbaa !268
  %133 = getelementptr inbounds nuw %"class.cv::PngEncoder", ptr %23, i32 0, i32 10
  %134 = load i32, ptr %20, align 4, !tbaa !31
  %135 = sext i32 %134 to i64
  %136 = getelementptr inbounds [6 x %"struct.cv::OP"], ptr %133, i64 0, i64 %135
  %137 = getelementptr inbounds nuw %"struct.cv::OP", ptr %136, i32 0, i32 6
  store i32 1, ptr %137, align 4, !tbaa !269
  %138 = getelementptr inbounds nuw %"class.cv::PngEncoder", ptr %23, i32 0, i32 8
  %139 = call i32 @deflateReset(ptr noundef %138)
  %140 = getelementptr inbounds nuw %"class.cv::PngEncoder", ptr %23, i32 0, i32 9
  %141 = call i32 @deflateReset(ptr noundef %140)
  call void @llvm.lifetime.end.p0(i64 4, ptr %22) #3
  call void @llvm.lifetime.end.p0(i64 8, ptr %21) #3
  ret void
}