; Function Attrs: mustprogress uwtable
define hidden void @_ZN2cv10PngEncoder13deflateRectOpEPhiiiiiiii(ptr noundef nonnull align 8 dereferenceable(8960) initializes((7480, 7492), (7544, 7548), (7592, 7604), (7656, 7660)) %0, ptr noundef %1, i32 noundef %2, i32 noundef %3, i32 noundef %4, i32 noundef %5, i32 noundef %6, i32 noundef %7, i32 noundef %8, i32 noundef %9) local_unnamed_addr #5 align 2 {
  %11 = mul nsw i32 %7, %3
  %12 = sext i32 %11 to i64
  %13 = getelementptr inbounds i8, ptr %1, i64 %12
  %14 = mul nsw i32 %6, %2
  %15 = sext i32 %14 to i64
  %16 = getelementptr inbounds i8, ptr %13, i64 %15
  %17 = mul nsw i32 %6, %4
  %18 = getelementptr inbounds nuw i8, ptr %0, i64 7456
  %19 = getelementptr inbounds nuw i8, ptr %0, i64 7544
  store i32 0, ptr %19, align 8, !tbaa !249
  %20 = getelementptr inbounds nuw i8, ptr %0, i64 120
  %21 = load ptr, ptr %20, align 8, !tbaa !209
  %22 = getelementptr inbounds nuw i8, ptr %0, i64 7480
  store ptr %21, ptr %22, align 8, !tbaa !250
  %23 = getelementptr inbounds nuw i8, ptr %0, i64 7488
  store i32 %8, ptr %23, align 8, !tbaa !251
  %24 = getelementptr inbounds nuw i8, ptr %0, i64 7568
  %25 = getelementptr inbounds nuw i8, ptr %0, i64 7656
  store i32 0, ptr %25, align 8, !tbaa !252
  %26 = getelementptr inbounds nuw i8, ptr %0, i64 1168
  %27 = load ptr, ptr %26, align 8, !tbaa !209
  %28 = getelementptr inbounds nuw i8, ptr %0, i64 7592
  store ptr %27, ptr %28, align 8, !tbaa !253
  %29 = getelementptr inbounds nuw i8, ptr %0, i64 7600
  store i32 %8, ptr %29, align 8, !tbaa !254
  tail call void @_ZN2cv10PngEncoder11processRectEPhiiiiS1_(ptr noundef nonnull align 8 dereferenceable(8960) %0, ptr noundef %16, i32 noundef %17, i32 noundef %6, i32 noundef %7, i32 noundef %5, ptr noundef null)
  %30 = tail call i32 @deflate(ptr noundef nonnull %18, i32 noundef 4)
  %31 = tail call i32 @deflate(ptr noundef nonnull %24, i32 noundef 4)
  %32 = getelementptr inbounds nuw i8, ptr %0, i64 7680
  %33 = sext i32 %9 to i64
  %34 = getelementptr inbounds [6 x %"struct.cv::OP"], ptr %32, i64 0, i64 %33
  store ptr %1, ptr %34, align 8, !tbaa !255
  %35 = getelementptr inbounds nuw i8, ptr %0, i64 7496
  %36 = load i64, ptr %35, align 8, !tbaa !257
  %37 = getelementptr inbounds nuw i8, ptr %0, i64 7608
  %38 = load i64, ptr %37, align 8, !tbaa !258
  %39 = icmp uge i64 %36, %38
  %spec.select = tail call i64 @llvm.umin.i64(i64 %36, i64 %38)
  %spec.select31 = zext i1 %39 to i32
  %.sink30 = trunc i64 %spec.select to i32
  %40 = getelementptr inbounds nuw i8, ptr %34, i64 8
  store i32 %.sink30, ptr %40, align 8, !tbaa !259
  %41 = getelementptr inbounds nuw i8, ptr %34, i64 32
  store i32 %spec.select31, ptr %41, align 8, !tbaa !260
  %42 = getelementptr inbounds nuw i8, ptr %34, i64 12
  store i32 %2, ptr %42, align 4, !tbaa !261
  %43 = getelementptr inbounds nuw i8, ptr %34, i64 16
  store i32 %3, ptr %43, align 8, !tbaa !262
  %44 = getelementptr inbounds nuw i8, ptr %34, i64 20
  store i32 %4, ptr %44, align 4, !tbaa !263
  %45 = getelementptr inbounds nuw i8, ptr %34, i64 24
  store i32 %5, ptr %45, align 8, !tbaa !264
  %46 = getelementptr inbounds nuw i8, ptr %34, i64 28
  store i32 1, ptr %46, align 4, !tbaa !265
  %47 = tail call i32 @deflateReset(ptr noundef nonnull %18)
  %48 = tail call i32 @deflateReset(ptr noundef nonnull %24)
  ret void
}